target datalayout = "e-m:e-p270:32:32-p271:32:32-p272:64:64-i64:64-i128:128-f80:128-n8:16:32:64-S128"
target triple = "x86_64-pc-linux-gnu"

%"struct.std::_Vector_base.33" = type { %"struct.std::_Vector_base<std::pair<pxrInternal_v0_24__pxrReserved__::SdfPathExpression::Op, int>, std::allocator<std::pair<pxrInternal_v0_24__pxrReserved__::SdfPathExpression::Op, int>>>::_Vector_impl" }
%"struct.std::_Vector_base<std::pair<pxrInternal_v0_24__pxrReserved__::SdfPathExpression::Op, int>, std::allocator<std::pair<pxrInternal_v0_24__pxrReserved__::SdfPathExpression::Op, int>>>::_Vector_impl" = type { %"struct.std::_Vector_base<std::pair<pxrInternal_v0_24__pxrReserved__::SdfPathExpression::Op, int>, std::allocator<std::pair<pxrInternal_v0_24__pxrReserved__::SdfPathExpression::Op, int>>>::_Vector_impl_data" }
%"struct.std::_Vector_base<std::pair<pxrInternal_v0_24__pxrReserved__::SdfPathExpression::Op, int>, std::allocator<std::pair<pxrInternal_v0_24__pxrReserved__::SdfPathExpression::Op, int>>>::_Vector_impl_data" = type { ptr, ptr, ptr }
%"struct.std::pair" = type { i32, i32 }
%"class.__gnu_cxx::__normal_iterator.127" = type { ptr }
%"class.pxrInternal_v0_24__pxrReserved__::TfFunctionRef.37" = type { ptr, ptr }
%class.anon = type { ptr }

; Function Attrs: mustprogress nounwind uwtable
define linkonce_odr void @_ZN9__gnu_cxx17__normal_iteratorIPKSt4pairIN32pxrInternal_v0_24__pxrReserved__17SdfPathExpression2OpEiESt6vectorIS5_SaIS5_EEEC2ERKS7_(ptr noundef nonnull align 8 dereferenceable(8) %0, ptr noundef nonnull align 8 dereferenceable(8) %1) unnamed_addr #2 comdat align 2 {
  %3 = alloca ptr, align 8
  %4 = alloca ptr, align 8
  store ptr %0, ptr %3, align 8
  store ptr %1, ptr %4, align 8
  %5 = load ptr, ptr %3, align 8
  %6 = getelementptr inbounds nuw %"class.__gnu_cxx::__normal_iterator.127", ptr %5, i32 0, i32 0
  %7 = load ptr, ptr %4, align 8
  %8 = load ptr, ptr %7, align 8
  store ptr %8, ptr %6, align 8
  ret void
}

; Function Attrs: mustprogress nounwind uwtable
define linkonce_odr noundef nonnull align 4 dereferenceable(8) ptr @_ZNK9__gnu_cxx17__normal_iteratorIPKSt4pairIN32pxrInternal_v0_24__pxrReserved__17SdfPathExpression2OpEiESt6vectorIS5_SaIS5_EEEdeEv(ptr noundef nonnull align 8 dereferenceable(8) %0) #2 comdat align 2 {
  %2 = alloca ptr, align 8
  store ptr %0, ptr %2, align 8
  %3 = load ptr, ptr %2, align 8
  %4 = getelementptr inbounds nuw %"class.__gnu_cxx::__normal_iterator.127", ptr %3, i32 0, i32 0
  %5 = load ptr, ptr %4, align 8
  ret ptr %5
}

; Function Attrs: mustprogress nounwind uwtable
define linkonce_odr ptr @_ZNK9__gnu_cxx17__normal_iteratorIPKSt4pairIN32pxrInternal_v0_24__pxrReserved__17SdfPathExpression2OpEiESt6vectorIS5_SaIS5_EEEmiEl(ptr noundef nonnull align 8 dereferenceable(8) %0, i64 noundef %1) #2 comdat align 2 {
  %3 = alloca %"class.__gnu_cxx::__normal_iterator.127", align 8
  %4 = alloca ptr, align 8
  %5 = alloca i64, align 8
  %6 = alloca ptr, align 8
  store ptr %0, ptr %4, align 8
  store i64 %1, ptr %5, align 8
  %7 = load ptr, ptr %4, align 8
  %8 = getelementptr inbounds nuw %"class.__gnu_cxx::__normal_iterator.127", ptr %7, i32 0, i32 0
  %9 = load ptr, ptr %8, align 8
  %10 = load i64, ptr %5, align 8
  %11 = sub i64 0, %10
  %12 = getelementptr inbounds %"struct.std::pair", ptr %9, i64 %11
  store ptr %12, ptr %6, align 8
  call void @_ZN9__gnu_cxx17__normal_iteratorIPKSt4pairIN32pxrInternal_v0_24__pxrReserved__17SdfPathExpression2OpEiESt6vectorIS5_SaIS5_EEEC2ERKS7_(ptr noundef nonnull align 8 dereferenceable(8) %3, ptr noundef nonnull align 8 dereferenceable(8) %6) #3
  %13 = getelementptr inbounds nuw %"class.__gnu_cxx::__normal_iterator.127", ptr %3, i32 0, i32 0
  %14 = load ptr, ptr %13, align 8
  ret ptr %14
}

; Function Attrs: mustprogress nounwind uwtable
define linkonce_odr ptr @_ZNKSt6vectorISt4pairIN32pxrInternal_v0_24__pxrReserved__17SdfPathExpression2OpEiESaIS4_EE3endEv(ptr noundef nonnull align 8 dereferenceable(24) %0) #2 comdat align 2 {
  %2 = alloca %"class.__gnu_cxx::__normal_iterator.127", align 8
  %3 = alloca ptr, align 8
  store ptr %0, ptr %3, align 8
  %4 = load ptr, ptr %3, align 8
  %5 = getelementptr inbounds nuw %"struct.std::_Vector_base.33", ptr %4, i32 0, i32 0
  %6 = getelementptr inbounds nuw %"struct.std::_Vector_base<std::pair<pxrInternal_v0_24__pxrReserved__::SdfPathExpression::Op, int>, std::allocator<std::pair<pxrInternal_v0_24__pxrReserved__::SdfPathExpression::Op, int>>>::_Vector_impl_data", ptr %5, i32 0, i32 1
  call void @_ZN9__gnu_cxx17__normal_iteratorIPKSt4pairIN32pxrInternal_v0_24__pxrReserved__17SdfPathExpression2OpEiESt6vectorIS5_SaIS5_EEEC2ERKS7_(ptr noundef nonnull align 8 dereferenceable(8) %2, ptr noundef nonnull align 8 dereferenceable(8) %6) #3
  %7 = getelementptr inbounds nuw %"class.__gnu_cxx::__normal_iterator.127", ptr %2, i32 0, i32 0
  %8 = load ptr, ptr %7, align 8
  ret ptr %8
}

; Function Attrs: mustprogress uwtable
define linkonce_odr void @_ZNK32pxrInternal_v0_24__pxrReserved__13TfFunctionRefIFvNS_17SdfPathExpression2OpEiEEclES2_i(ptr noundef nonnull align 8 dereferenceable(16) %0, i32 noundef %1, i32 noundef %2) #0 comdat align 2 {
  %4 = alloca ptr, align 8
  %5 = alloca i32, align 4
  %6 = alloca i32, align 4
  store ptr %0, ptr %4, align 8
  store i32 %1, ptr %5, align 4
  store i32 %2, ptr %6, align 4
  %7 = load ptr, ptr %4, align 8
  %8 = getelementptr inbounds nuw %"class.pxrInternal_v0_24__pxrReserved__::TfFunctionRef.37", ptr %7, i32 0, i32 1
  %9 = load ptr, ptr %8, align 8
  %10 = getelementptr inbounds nuw %"class.pxrInternal_v0_24__pxrReserved__::TfFunctionRef.37", ptr %7, i32 0, i32 0
  %11 = load ptr, ptr %10, align 8
  %12 = load i32, ptr %5, align 4
  %13 = load i32, ptr %6, align 4
  call void %9(ptr noundef %11, i32 noundef %12, i32 noundef %13)
  ret void
}

; Function Attrs: mustprogress nounwind uwtable
define linkonce_odr noundef nonnull align 4 dereferenceable(8) ptr @_ZNKSt6vectorISt4pairIN32pxrInternal_v0_24__pxrReserved__17SdfPathExpression2OpEiESaIS4_EE4backEv(ptr noundef nonnull align 8 dereferenceable(24) %0) #2 comdat align 2 {
  %2 = alloca ptr, align 8
  %3 = alloca %"class.__gnu_cxx::__normal_iterator.127", align 8
  %4 = alloca %"class.__gnu_cxx::__normal_iterator.127", align 8
  store ptr %0, ptr %2, align 8
  %5 = load ptr, ptr %2, align 8
  %6 = call ptr @_ZNKSt6vectorISt4pairIN32pxrInternal_v0_24__pxrReserved__17SdfPathExpression2OpEiESaIS4_EE3endEv(ptr noundef nonnull align 8 dereferenceable(24) %5) #3
  %7 = getelementptr inbounds nuw %"class.__gnu_cxx::__normal_iterator.127", ptr %4, i32 0, i32 0
  store ptr %6, ptr %7, align 8
  %8 = call ptr @_ZNK9__gnu_cxx17__normal_iteratorIPKSt4pairIN32pxrInternal_v0_24__pxrReserved__17SdfPathExpression2OpEiESt6vectorIS5_SaIS5_EEEmiEl(ptr noundef nonnull align 8 dereferenceable(8) %4, i64 noundef 1) #3
  %9 = getelementptr inbounds nuw %"class.__gnu_cxx::__normal_iterator.127", ptr %3, i32 0, i32 0
  store ptr %8, ptr %9, align 8
  %10 = call noundef nonnull align 4 dereferenceable(8) ptr @_ZNK9__gnu_cxx17__normal_iteratorIPKSt4pairIN32pxrInternal_v0_24__pxrReserved__17SdfPathExpression2OpEiESt6vectorIS5_SaIS5_EEEdeEv(ptr noundef nonnull align 8 dereferenceable(8) %3) #3
  ret ptr %10
}

; Function Attrs: mustprogress uwtable
define internal void @"_ZZNK32pxrInternal_v0_24__pxrReserved__17SdfPathExpression4WalkENS_13TfFunctionRefIFvNS0_2OpEiEEENS1_IFvRKNS0_19ExpressionReferenceEEEENS1_IFvRKNS_14SdfPathPatternEEEEENK3$_0clERKSt6vectorISt4pairIS2_iESaISI_EE"(ptr noundef nonnull align 8 dereferenceable(8) %0, ptr noundef nonnull align 8 dereferenceable(24) %1) #0 align 2 {
  %3 = alloca ptr, align 8
  %4 = alloca ptr, align 8
  store ptr %0, ptr %3, align 8
  store ptr %1, ptr %4, align 8
  %5 = load ptr, ptr %3, align 8
  %6 = getelementptr inbounds nuw %class.anon, ptr %5, i32 0, i32 0
  %7 = load ptr, ptr %6, align 8
  %8 = load ptr, ptr %4, align 8
  %9 = call noundef nonnull align 4 dereferenceable(8) ptr @_ZNKSt6vectorISt4pairIN32pxrInternal_v0_24__pxrReserved__17SdfPathExpression2OpEiESaIS4_EE4backEv(ptr noundef nonnull align 8 dereferenceable(24) %8) #3
  %10 = getelementptr inbounds nuw %"struct.std::pair", ptr %9, i32 0, i32 0
  %11 = load i32, ptr %10, align 4
  %12 = load ptr, ptr %4, align 8
  %13 = call noundef nonnull align 4 dereferenceable(8) ptr @_ZNKSt6vectorISt4pairIN32pxrInternal_v0_24__pxrReserved__17SdfPathExpression2OpEiESaIS4_EE4backEv(ptr noundef nonnull align 8 dereferenceable(24) %12) #3
  %14 = getelementptr inbounds nuw %"struct.std::pair", ptr %13, i32 0, i32 1
  %15 = load i32, ptr %14, align 4
  call void @_ZNK32pxrInternal_v0_24__pxrReserved__13TfFunctionRefIFvNS_17SdfPathExpression2OpEiEEclES2_i(ptr noundef nonnull align 8 dereferenceable(16) %7, i32 noundef %11, i32 noundef %15)
  ret void
}

; Function Attrs: mustprogress uwtable
define internal void @"_ZN32pxrInternal_v0_24__pxrReserved__13TfFunctionRefIFvRKSt6vectorISt4pairINS_17SdfPathExpression2OpEiESaIS5_EEEE9_InvokeFnIZNKS3_4WalkENS0_IFvS4_iEEENS0_IFvRKNS3_19ExpressionReferenceEEEENS0_IFvRKNS_14SdfPathPatternEEEEE3$_0EEvPKvS9_"(ptr noundef %0, ptr noundef nonnull align 8 dereferenceable(24) %1) #0 align 2 {
  %3 = alloca ptr, align 8
  %4 = alloca ptr, align 8
  store ptr %0, ptr %3, align 8
  store ptr %1, ptr %4, align 8
  %5 = load ptr, ptr %3, align 8
  %6 = load ptr, ptr %4, align 8
  call void @"_ZZNK32pxrInternal_v0_24__pxrReserved__17SdfPathExpression4WalkENS_13TfFunctionRefIFvNS0_2OpEiEEENS1_IFvRKNS0_19ExpressionReferenceEEEENS1_IFvRKNS_14SdfPathPatternEEEEENK3$_0clERKSt6vectorISt4pairIS2_iESaISI_EE"(ptr noundef nonnull align 8 dereferenceable(8) %5, ptr noundef nonnull align 8 dereferenceable(24) %6)
  ret void
}